target datalayout = "e-m:e-p270:32:32-p271:32:32-p272:64:64-i64:64-i128:128-f80:128-n8:16:32:64-S128"
target triple = "x86_64-unknown-linux-gnu"

%class.decl_plugin = type <{ ptr, ptr, i32, [4 x i8] }>

@.str.63 = private unnamed_addr constant [33 x i8] c"set-has-size takes two arguments\00", align 1
@.str.64 = private unnamed_addr constant [30 x i8] c"set-has-size is not supported\00", align 1

; Function Attrs: mustprogress uwtable
define hidden noundef ptr @_ZN17array_decl_plugin15mk_set_has_sizeEjPKP4sort(ptr noundef nonnull align 8 dereferenceable(136) %this, i32 noundef %arity, ptr noundef %domain) #4 align 2 {
entry:
  %this.addr = alloca ptr, align 8
  %arity.addr = alloca i32, align 4
  %domain.addr = alloca ptr, align 8
  store ptr %this, ptr %this.addr, align 8
  store i32 %arity, ptr %arity.addr, align 4
  store ptr %domain, ptr %domain.addr, align 8
  %this1 = load ptr, ptr %this.addr, align 8
  %0 = load i32, ptr %arity.addr, align 4
  %cmp = icmp ne i32 %0, 2
  br i1 %cmp, label %if.then, label %if.end

if.then:                                          ; preds = %entry
  %m_manager = getelementptr inbounds %class.decl_plugin, ptr %this1, i32 0, i32 1
  %1 = load ptr, ptr %m_manager, align 8
  call void @_ZN11ast_manager15raise_exceptionEPKc(ptr noundef nonnull align 8 dereferenceable(976) %1, ptr noundef @.str.63) #13
  unreachable

if.end:                                           ; preds = %entry
  %m_manager2 = getelementptr inbounds %class.decl_plugin, ptr %this1, i32 0, i32 1
  %2 = load ptr, ptr %m_manager2, align 8
  call void @_ZN11ast_manager15raise_exceptionEPKc(ptr noundef nonnull align 8 dereferenceable(976) %2, ptr noundef @.str.64) #13
  unreachable
}