; Function Attrs: mustprogress noreturn uwtable
define hidden noalias noundef nonnull ptr @_ZN17array_decl_plugin15mk_set_has_sizeEjPKP4sort(ptr nocapture noundef nonnull readonly align 8 dereferenceable(136) %this, i32 noundef %arity, ptr nocapture readnone %domain) local_unnamed_addr #7 align 2 {
entry:
  %cmp.not = icmp eq i32 %arity, 2
  %m_manager2 = getelementptr inbounds i8, ptr %this, i64 8
  %0 = load ptr, ptr %m_manager2, align 8
  br i1 %cmp.not, label %if.end, label %if.then

if.then:                                          ; preds = %entry
  tail call void @_ZN11ast_manager15raise_exceptionEPKc(ptr noundef nonnull align 8 dereferenceable(976) %0, ptr noundef nonnull @.str.63) #18
  unreachable

if.end:                                           ; preds = %entry
  tail call void @_ZN11ast_manager15raise_exceptionEPKc(ptr noundef nonnull align 8 dereferenceable(976) %0, ptr noundef nonnull @.str.64) #18
  unreachable
}